(dp0
I2016
(dp1
S'Wayne County'
p2
I2719
sS'Wasatch MCD'
p3
I1774001
sS'Beaver County'
p4
I6780
sS'Southwest MCD'
p5
I230646
sS'San Juan County'
p6
I16304
sS'Duchesne County'
p7
I20604
sS'Piute County'
p8
I1604
sS'Daggett County'
p9
I1102
sS'Morgan County'
p10
I11523
sS'Mountainland MCD'
p11
I673410
sS'Box Elder County'
p12
I54036
sS'Davis County'
p13
I342645
sS'Garfield County'
p14
I5190
sS'Iron County'
p15
I50740
sS'Southeast MCD'
p16
I57998
sS'State of Utah'
p17
I3054797
sS'Tooele County'
p18
I65282
sS'Carbon County'
p19
I21190
sS'Washington County'
p20
I160358
sS'Emery County'
p21
I10576
sS'Weber County'
p22
I245674
sS'Sanpete County'
p23
I29482
sS'Millard County'
p24
I13289
sS'Uintah Basin MCD'
p25
I58291
sS'Sevier County'
p26
I21522
sS'Cache County'
p27
I123905
sS'Grand County'
p28
I9931
sS'Bear River MCD'
p29
I180304
sS'Juab County'
p30
I11540
sS'Central MCD'
p31
I80158
sS'Utah County'
p32
I603357
sS'Uintah County'
p33
I36575
sS'Wasatch County'
p34
I29993
sS'Summit County'
p35
I40041
sS'Salt Lake County'
p36
I1108867
sS'Rich County'
p37
I2357
sS'Kane County'
p38
I7576
ssI2017
(dp39
g2
I2745
sg3
I1805778
sg4
I6854
sg5
I238174
sg6
I16481
sg7
I21134
sg8
I1615
sg9
I1114
sg10
I12003
sg11
I695919
sg12
I54889
sg13
I348280
sg14
I5276
sg15
I51779
sg16
I58900
sg17
I3123604
sg18
I67552
sg19
I21604
sg20
I166538
sg21
I10712
sg22
I250823
sg23
I29907
sg24
I13389
sg25
I59670
sg26
I21923
sg27
I126267
sg28
I10100
sg29
I183542
sg30
I12049
sg31
I81635
sg32
I623710
sg33
I37425
sg34
I31475
sg35
I40727
sg36
I1127110
sg37
I2382
sg38
I7731
ssI2018
(dp40
g2
I2774
sg3
I1838615
sg4
I6933
sg5
I246288
sg6
I16712
sg7
I21725
sg8
I1631
sg9
I1135
sg10
I12494
sg11
I717438
sg12
I55774
sg13
I354130
sg14
I5344
sg15
I52879
sg16
I59863
sg17
I3193411
sg18
I69862
sg19
I22035
sg20
I173225
sg21
I10847
sg22
I256279
sg23
I30361
sg24
I13512
sg25
I61191
sg26
I22350
sg27
I128681
sg28
I10264
sg29
I186858
sg30
I12544
sg31
I83173
sg32
I643070
sg33
I38325
sg34
I32938
sg35
I41430
sg36
I1145846
sg37
I2404
sg38
I7893
ssI2019
(dp41
g2
I2810
sg3
I1870383
sg4
I7008
sg5
I254428
sg6
I16931
sg7
I22235
sg8
I1636
sg9
I1148
sg10
I12971
sg11
I737761
sg12
I56640
sg13
I359674
sg14
I5430
sg15
I53993
sg16
I60771
sg17
I3260773
sg18
I72122
sg19
I22442
sg20
I179956
sg21
I10981
sg22
I261557
sg23
I30830
sg24
I13642
sg25
I62494
sg26
I22758
sg27
I131145
sg28
I10417
sg29
I190222
sg30
I13019
sg31
I84696
sg32
I661277
sg33
I39113
sg34
I34349
sg35
I42135
sg36
I1164055
sg37
I2428
sg38
I8028
ssI2020
(dp42
g2
I2830
sg3
I1900459
sg4
I7083
sg5
I262446
sg6
I17116
sg7
I22649
sg8
I1648
sg9
I1165
sg10
I13444
sg11
I757727
sg12
I57481
sg13
I364817
sg14
I5513
sg15
I55054
sg16
I61564
sg17
I3325426
sg18
I74295
sg19
I22810
sg20
I186620
sg21
I11090
sg22
I266449
sg23
I31291
sg24
I13775
sg25
I63554
sg26
I23101
sg27
I133598
sg28
I10559
sg29
I193529
sg30
I13504
sg31
I86140
sg32
I679194
sg33
I39748
sg34
I35715
sg35
I42823
sg36
I1181470
sg37
I2453
sg38
I8165
ssI2021
(dp43
g2
I2859
sg3
I1929578
sg4
I7148
sg5
I270592
sg6
I17303
sg7
I23048
sg8
I1655
sg9
I1184
sg10
I13908
sg11
I777860
sg12
I58291
sg13
I369762
sg14
I5593
sg15
I56118
sg16
I62372
sg17
I3389474
sg18
I76418
sg19
I23167
sg20
I193438
sg21
I11205
sg22
I271128
sg23
I31776
sg24
I13915
sg25
I64543
sg26
I23435
sg27
I136135
sg28
I10686
sg29
I196895
sg30
I13978
sg31
I87622
sg32
I697242
sg33
I40312
sg34
I37058
sg35
I43560
sg36
I1198373
sg37
I2475
sg38
I8292
ssI2022
(dp44
g2
I2891
sg3
I1955917
sg4
I7224
sg5
I278512
sg6
I17489
sg7
I23403
sg8
I1668
sg9
I1192
sg10
I14357
sg11
I797750
sg12
I59049
sg13
I374255
sg14
I5661
sg15
I57132
sg16
I63121
sg17
I3449984
sg18
I78418
sg19
I23500
sg20
I200093
sg21
I11307
sg22
I275454
sg23
I32252
sg24
I14050
sg25
I65427
sg26
I23728
sg27
I138681
sg28
I10835
sg29
I200215
sg30
I14442
sg31
I89044
sg32
I715119
sg33
I40825
sg34
I38362
sg35
I44270
sg36
I1213420
sg37
I2486
sg38
I8403
ssI2023
(dp45
g2
I2927
sg3
I1979755
sg4
I7294
sg5
I286184
sg6
I17644
sg7
I23735
sg8
I1673
sg9
I1211
sg10
I14790
sg11
I817479
sg12
I59734
sg13
I378369
sg14
I5726
sg15
I58114
sg16
I63809
sg17
I3507359
sg18
I80324
sg19
I23802
sg20
I206550
sg21
I11399
sg22
I279468
sg23
I32741
sg24
I14179
sg25
I66226
sg26
I24003
sg27
I141252
sg28
I10954
sg29
I203491
sg30
I14915
sg31
I90434
sg32
I732872
sg33
I41292
sg34
I39625
sg35
I44978
sg36
I1226793
sg37
I2501
sg38
I8504
ssI2024
(dp46
g2
I2957
sg3
I2001613
sg4
I7355
sg5
I293621
sg6
I17805
sg7
I24015
sg8
I1683
sg9
I1217
sg10
I15207
sg11
I837130
sg12
I60373
sg13
I382199
sg14
I5781
sg15
I59038
sg16
I64438
sg17
I3562227
sg18
I82150
sg19
I24078
sg20
I212846
sg21
I11479
sg22
I283196
sg23
I33216
sg24
I14290
sg25
I66946
sg26
I24264
sg27
I143807
sg28
I11079
sg29
I206703
sg30
I15360
sg31
I91771
sg32
I750598
sg33
I41708
sg34
I40837
sg35
I45696
sg36
I1238854
sg37
I2516
sg38
I8595
ssI2014
(dp47
g2
I2741
sg3
I1723250
sg4
I6666
sg5
I217813
sg6
I15768
sg7
I20582
sg8
I1592
sg9
I1108
sg10
I10774
sg11
I633232
sg12
I52286
sg13
I329835
sg14
I5186
sg15
I48194
sg16
I57435
sg17
I2941856
sg18
I62178
sg19
I21201
sg20
I150506
sg21
I10839
sg22
I239577
sg23
I28703
sg24
I13027
sg25
I58671
sg26
I21104
sg27
I118877
sg28
I9625
sg29
I173482
sg30
I10821
sg31
I77984
sg32
I567213
sg33
I36974
sg34
I27346
sg35
I38680
sg36
I1080872
sg37
I2328
sg38
I7267
ssI2015
(dp48
g2
I2727
sg3
I1747814
sg4
I6707
sg5
I223164
sg6
I15903
sg7
I20822
sg8
I1636
sg9
I1108
sg10
I11079
sg11
I653584
sg12
I52976
sg13
I336093
sg14
I5169
sg15
I49400
sg16
I57481
sg17
I2997407
sg18
I63265
sg19
I21163
sg20
I154602
sg21
I10652
sg22
I242734
sg23
I29088
sg24
I13110
sg25
I59325
sg26
I21237
sg27
I121853
sg28
I9754
sg29
I177181
sg30
I11068
sg31
I78857
sg32
I585694
sg33
I37397
sg34
I28616
sg35
I39277
sg36
I1094644
sg37
I2351
sg38
I7272
ss.